target datalayout = "e-m:e-p270:32:32-p271:32:32-p272:64:64-i64:64-i128:128-f80:128-n8:16:32:64-S128"
target triple = "x86_64-pc-linux-gnu"

%"class.google::LogMessageFatal" = type { %"class.google::LogMessage" }
%"class.google::LogMessage" = type { ptr, ptr, %"struct.google::LogMessageTime" }
%"struct.google::LogMessageTime" = type { %struct.tm, i64, i32, i64 }
%struct.tm = type { i32, i32, i32, i32, i32, i32, i32, i32, i32, i64, ptr }
%"struct.google::CheckOpString" = type { ptr }
%"class.ceres::internal::LevenbergMarquardtStrategy" = type <{ %"class.ceres::internal::TrustRegionStrategy", ptr, double, double, double, double, double, i8, [7 x i8], %"class.Eigen::Matrix", %"class.Eigen::Matrix", ptr, i32, [4 x i8] }>
%"class.ceres::internal::TrustRegionStrategy" = type { ptr }
%"class.Eigen::Matrix" = type { %"class.Eigen::PlainObjectBase" }
%"class.Eigen::PlainObjectBase" = type { %"class.Eigen::DenseStorage" }
%"class.Eigen::DenseStorage" = type { ptr, i64 }
%"class.google::base::CheckOpMessageBuilder" = type { ptr }

@.str = private unnamed_addr constant [143 x i8] c"generated/home/dtcxzyw/WorkSpace/Projects/compilers/llvm-opt-benchmark/bench/ceres/ceres-solver/internal/ceres/levenberg_marquardt_strategy.cc\00", align 1
@.str.15 = private unnamed_addr constant [19 x i8] c"step_quality > 0.0\00", align 1

; Function Attrs: mustprogress uwtable
define linkonce_odr hidden void @_ZN6google22MakeCheckOpValueStringIdEEvPSoRKT_(ptr noundef %0, ptr noundef nonnull align 8 dereferenceable(8) %1) #2 comdat {
  %3 = alloca ptr, align 8
  %4 = alloca ptr, align 8
  store ptr %0, ptr %3, align 8
  store ptr %1, ptr %4, align 8
  %5 = load ptr, ptr %3, align 8
  %6 = load ptr, ptr %4, align 8
  %7 = load double, ptr %6, align 8
  %8 = call noundef nonnull align 8 dereferenceable(8) ptr @_ZNSolsEd(ptr noundef nonnull align 8 dereferenceable(8) %5, double noundef %7)
  ret void
}

; Function Attrs: mustprogress nounwind uwtable
define linkonce_odr hidden noundef ptr @_ZN6google4base21CheckOpMessageBuilder7ForVar1Ev(ptr noundef nonnull align 8 dereferenceable(8) %0) #1 comdat align 2 {
  %2 = alloca ptr, align 8
  store ptr %0, ptr %2, align 8
  %3 = load ptr, ptr %2, align 8
  %4 = getelementptr inbounds %"class.google::base::CheckOpMessageBuilder", ptr %3, i32 0, i32 0
  %5 = load ptr, ptr %4, align 8
  ret ptr %5
}

; Function Attrs: mustprogress uwtable
define linkonce_odr hidden noundef ptr @_ZN6google17MakeCheckOpStringIddEEPNSt7__cxx1112basic_stringIcSt11char_traitsIcESaIcEEERKT_RKT0_PKc(ptr noundef nonnull align 8 dereferenceable(8) %0, ptr noundef nonnull align 8 dereferenceable(8) %1, ptr noundef %2) #2 comdat personality ptr @__gxx_personality_v0 {
  %4 = alloca ptr, align 8
  %5 = alloca ptr, align 8
  %6 = alloca ptr, align 8
  %7 = alloca %"class.google::base::CheckOpMessageBuilder", align 8
  %8 = alloca ptr, align 8
  %9 = alloca i32, align 4
  store ptr %0, ptr %4, align 8
  store ptr %1, ptr %5, align 8
  store ptr %2, ptr %6, align 8
  %10 = load ptr, ptr %6, align 8
  call void @_ZN6google4base21CheckOpMessageBuilderC1EPKc(ptr noundef nonnull align 8 dereferenceable(8) %7, ptr noundef %10)
  %11 = invoke noundef ptr @_ZN6google4base21CheckOpMessageBuilder7ForVar1Ev(ptr noundef nonnull align 8 dereferenceable(8) %7)
          to label %12 unwind label %21

12:                                               ; preds = %3
  %13 = load ptr, ptr %4, align 8
  invoke void @_ZN6google22MakeCheckOpValueStringIdEEvPSoRKT_(ptr noundef %11, ptr noundef nonnull align 8 dereferenceable(8) %13)
          to label %14 unwind label %21

14:                                               ; preds = %12
  %15 = invoke noundef ptr @_ZN6google4base21CheckOpMessageBuilder7ForVar2Ev(ptr noundef nonnull align 8 dereferenceable(8) %7)
          to label %16 unwind label %21

16:                                               ; preds = %14
  %17 = load ptr, ptr %5, align 8
  invoke void @_ZN6google22MakeCheckOpValueStringIdEEvPSoRKT_(ptr noundef %15, ptr noundef nonnull align 8 dereferenceable(8) %17)
          to label %18 unwind label %21

18:                                               ; preds = %16
  %19 = invoke noundef ptr @_ZN6google4base21CheckOpMessageBuilder9NewStringB5cxx11Ev(ptr noundef nonnull align 8 dereferenceable(8) %7)
          to label %20 unwind label %21

20:                                               ; preds = %18
  call void @_ZN6google4base21CheckOpMessageBuilderD1Ev(ptr noundef nonnull align 8 dereferenceable(8) %7) #17
  ret ptr %19

21:                                               ; preds = %18, %16, %14, %12, %3
  %22 = landingpad { ptr, i32 }
          cleanup
  %23 = extractvalue { ptr, i32 } %22, 0
  store ptr %23, ptr %8, align 8
  %24 = extractvalue { ptr, i32 } %22, 1
  store i32 %24, ptr %9, align 4
  call void @_ZN6google4base21CheckOpMessageBuilderD1Ev(ptr noundef nonnull align 8 dereferenceable(8) %7) #17
  br label %25

25:                                               ; preds = %21
  %26 = load ptr, ptr %8, align 8
  %27 = load i32, ptr %9, align 4
  %28 = insertvalue { ptr, i32 } poison, ptr %26, 0
  %29 = insertvalue { ptr, i32 } %28, i32 %27, 1
  resume { ptr, i32 } %29
}

; Function Attrs: mustprogress nounwind uwtable
define linkonce_odr noundef nonnull align 8 dereferenceable(8) ptr @_ZSt3minIdERKT_S2_S2_(ptr noundef nonnull align 8 dereferenceable(8) %0, ptr noundef nonnull align 8 dereferenceable(8) %1) #1 comdat {
  %3 = alloca ptr, align 8
  %4 = alloca ptr, align 8
  %5 = alloca ptr, align 8
  store ptr %0, ptr %4, align 8
  store ptr %1, ptr %5, align 8
  %6 = load ptr, ptr %5, align 8
  %7 = load double, ptr %6, align 8
  %8 = load ptr, ptr %4, align 8
  %9 = load double, ptr %8, align 8
  %10 = fcmp olt double %7, %9
  br i1 %10, label %11, label %13

11:                                               ; preds = %2
  %12 = load ptr, ptr %5, align 8
  store ptr %12, ptr %3, align 8
  br label %15

13:                                               ; preds = %2
  %14 = load ptr, ptr %4, align 8
  store ptr %14, ptr %3, align 8
  br label %15

15:                                               ; preds = %13, %11
  %16 = load ptr, ptr %3, align 8
  ret ptr %16
}

; Function Attrs: mustprogress nounwind uwtable
define linkonce_odr noundef nonnull align 8 dereferenceable(8) ptr @_ZSt3maxIdERKT_S2_S2_(ptr noundef nonnull align 8 dereferenceable(8) %0, ptr noundef nonnull align 8 dereferenceable(8) %1) #1 comdat {
  %3 = alloca ptr, align 8
  %4 = alloca ptr, align 8
  %5 = alloca ptr, align 8
  store ptr %0, ptr %4, align 8
  store ptr %1, ptr %5, align 8
  %6 = load ptr, ptr %4, align 8
  %7 = load double, ptr %6, align 8
  %8 = load ptr, ptr %5, align 8
  %9 = load double, ptr %8, align 8
  %10 = fcmp olt double %7, %9
  br i1 %10, label %11, label %13

11:                                               ; preds = %2
  %12 = load ptr, ptr %5, align 8
  store ptr %12, ptr %3, align 8
  br label %15

13:                                               ; preds = %2
  %14 = load ptr, ptr %4, align 8
  store ptr %14, ptr %3, align 8
  br label %15

15:                                               ; preds = %13, %11
  %16 = load ptr, ptr %3, align 8
  ret ptr %16
}

; Function Attrs: mustprogress nounwind uwtable
define linkonce_odr noundef double @_ZSt3powIdiEN9__gnu_cxx9__promoteIDTplcvNS1_IT_Xsr3std12__is_integerIS2_EE7__valueEE6__typeELi0EcvNS1_IT0_Xsr3std12__is_integerIS5_EE7__valueEE6__typeELi0EEXsr3std12__is_integerIS8_EE7__valueEE6__typeES2_S5_(double noundef %0, i32 noundef %1) #1 comdat {
  %3 = alloca double, align 8
  %4 = alloca i32, align 4
  store double %0, ptr %3, align 8
  store i32 %1, ptr %4, align 4
  %5 = load double, ptr %3, align 8
  %6 = load i32, ptr %4, align 4
  %7 = sitofp i32 %6 to double
  %8 = call double @pow(double noundef %5, double noundef %7) #17
  ret double %8
}

; Function Attrs: mustprogress nounwind uwtable
define linkonce_odr hidden noundef zeroext i1 @_ZNK6google13CheckOpStringcvbEv(ptr noundef nonnull align 8 dereferenceable(8) %0) #1 comdat align 2 {
  %2 = alloca ptr, align 8
  store ptr %0, ptr %2, align 8
  %3 = load ptr, ptr %2, align 8
  %4 = getelementptr inbounds %"struct.google::CheckOpString", ptr %3, i32 0, i32 0
  %5 = load ptr, ptr %4, align 8
  %6 = icmp ne ptr %5, null
  ret i1 %6
}

; Function Attrs: mustprogress nounwind uwtable
define linkonce_odr hidden void @_ZN6google13CheckOpStringC2EPNSt7__cxx1112basic_stringIcSt11char_traitsIcESaIcEEE(ptr noundef nonnull align 8 dereferenceable(8) %0, ptr noundef %1) unnamed_addr #1 comdat align 2 {
  %3 = alloca ptr, align 8
  %4 = alloca ptr, align 8
  store ptr %0, ptr %3, align 8
  store ptr %1, ptr %4, align 8
  %5 = load ptr, ptr %3, align 8
  %6 = getelementptr inbounds %"struct.google::CheckOpString", ptr %5, i32 0, i32 0
  %7 = load ptr, ptr %4, align 8
  store ptr %7, ptr %6, align 8
  ret void
}

; Function Attrs: mustprogress uwtable
define linkonce_odr hidden noundef ptr @_ZN6google12Check_GTImplIddEEPNSt7__cxx1112basic_stringIcSt11char_traitsIcESaIcEEERKT_RKT0_PKc(ptr noundef nonnull align 8 dereferenceable(8) %0, ptr noundef nonnull align 8 dereferenceable(8) %1, ptr noundef %2) #2 comdat {
  %4 = alloca ptr, align 8
  %5 = alloca ptr, align 8
  %6 = alloca ptr, align 8
  %7 = alloca ptr, align 8
  store ptr %0, ptr %5, align 8
  store ptr %1, ptr %6, align 8
  store ptr %2, ptr %7, align 8
  %8 = load ptr, ptr %5, align 8
  %9 = load double, ptr %8, align 8
  %10 = load ptr, ptr %6, align 8
  %11 = load double, ptr %10, align 8
  %12 = fcmp ogt double %9, %11
  %13 = xor i1 %12, true
  %14 = xor i1 %13, true
  br i1 %14, label %15, label %16

15:                                               ; preds = %3
  store ptr null, ptr %4, align 8
  br label %21

16:                                               ; preds = %3
  %17 = load ptr, ptr %5, align 8
  %18 = load ptr, ptr %6, align 8
  %19 = load ptr, ptr %7, align 8
  %20 = call noundef ptr @_ZN6google17MakeCheckOpStringIddEEPNSt7__cxx1112basic_stringIcSt11char_traitsIcESaIcEEERKT_RKT0_PKc(ptr noundef nonnull align 8 dereferenceable(8) %17, ptr noundef nonnull align 8 dereferenceable(8) %18, ptr noundef %19)
  store ptr %20, ptr %4, align 8
  br label %21

21:                                               ; preds = %16, %15
  %22 = load ptr, ptr %4, align 8
  ret ptr %22
}

; Function Attrs: mustprogress nounwind uwtable
define linkonce_odr hidden noundef nonnull align 8 dereferenceable(8) ptr @_ZN6google21GetReferenceableValueIdEERKT_S3_(ptr noundef nonnull align 8 dereferenceable(8) %0) #1 comdat {
  %2 = alloca ptr, align 8
  store ptr %0, ptr %2, align 8
  %3 = load ptr, ptr %2, align 8
  ret ptr %3
}

; Function Attrs: mustprogress uwtable
define hidden void @_ZN5ceres8internal26LevenbergMarquardtStrategy12StepAcceptedEd(ptr noundef nonnull align 8 dereferenceable(112) %0, double noundef %1) unnamed_addr #2 align 2 personality ptr @__gxx_personality_v0 {
  %3 = alloca ptr, align 8
  %4 = alloca double, align 8
  %5 = alloca %"struct.google::CheckOpString", align 8
  %6 = alloca double, align 8
  %7 = alloca %"class.google::LogMessageFatal", align 8
  %8 = alloca ptr, align 8
  %9 = alloca i32, align 4
  %10 = alloca double, align 8
  %11 = alloca double, align 8
  store ptr %0, ptr %3, align 8
  store double %1, ptr %4, align 8
  %12 = load ptr, ptr %3, align 8
  br label %13

13:                                               ; preds = %2
  %14 = call noundef nonnull align 8 dereferenceable(8) ptr @_ZN6google21GetReferenceableValueIdEERKT_S3_(ptr noundef nonnull align 8 dereferenceable(8) %4)
  store double 0.000000e+00, ptr %6, align 8
  %15 = call noundef nonnull align 8 dereferenceable(8) ptr @_ZN6google21GetReferenceableValueIdEERKT_S3_(ptr noundef nonnull align 8 dereferenceable(8) %6)
  %16 = call noundef ptr @_ZN6google12Check_GTImplIddEEPNSt7__cxx1112basic_stringIcSt11char_traitsIcESaIcEEERKT_RKT0_PKc(ptr noundef nonnull align 8 dereferenceable(8) %14, ptr noundef nonnull align 8 dereferenceable(8) %15, ptr noundef @.str.15)
  call void @_ZN6google13CheckOpStringC2EPNSt7__cxx1112basic_stringIcSt11char_traitsIcESaIcEEE(ptr noundef nonnull align 8 dereferenceable(8) %5, ptr noundef %16)
  %17 = call noundef zeroext i1 @_ZNK6google13CheckOpStringcvbEv(ptr noundef nonnull align 8 dereferenceable(8) %5)
  br i1 %17, label %18, label %26

18:                                               ; preds = %13
  call void @_ZN6google15LogMessageFatalC1EPKciRKNS_13CheckOpStringE(ptr noundef nonnull align 8 dereferenceable(96) %7, ptr noundef @.str, i32 noundef 158, ptr noundef nonnull align 8 dereferenceable(8) %5)
  %19 = invoke noundef nonnull align 8 dereferenceable(8) ptr @_ZN6google10LogMessage6streamEv(ptr noundef nonnull align 8 dereferenceable(96) %7)
          to label %20 unwind label %21

20:                                               ; preds = %18
  call void @_ZN6google15LogMessageFatalD1Ev(ptr noundef nonnull align 8 dereferenceable(96) %7) #18
  unreachable

21:                                               ; preds = %18
  %22 = landingpad { ptr, i32 }
          cleanup
  %23 = extractvalue { ptr, i32 } %22, 0
  store ptr %23, ptr %8, align 8
  %24 = extractvalue { ptr, i32 } %22, 1
  store i32 %24, ptr %9, align 4
  call void @_ZN6google15LogMessageFatalD1Ev(ptr noundef nonnull align 8 dereferenceable(96) %7) #18
  unreachable

25:                                               ; No predecessors!
  br label %44

26:                                               ; preds = %13
  %27 = getelementptr inbounds %"class.ceres::internal::LevenbergMarquardtStrategy", ptr %12, i32 0, i32 2
  %28 = load double, ptr %27, align 8
  store double 0x3FD5555555555555, ptr %10, align 8
  %29 = load double, ptr %4, align 8
  %30 = call double @llvm.fmuladd.f64(double 2.000000e+00, double %29, double -1.000000e+00)
  %31 = call noundef double @_ZSt3powIdiEN9__gnu_cxx9__promoteIDTplcvNS1_IT_Xsr3std12__is_integerIS2_EE7__valueEE6__typeELi0EcvNS1_IT0_Xsr3std12__is_integerIS5_EE7__valueEE6__typeELi0EEXsr3std12__is_integerIS8_EE7__valueEE6__typeES2_S5_(double noundef %30, i32 noundef 3)
  %32 = fsub double 1.000000e+00, %31
  store double %32, ptr %11, align 8
  %33 = call noundef nonnull align 8 dereferenceable(8) ptr @_ZSt3maxIdERKT_S2_S2_(ptr noundef nonnull align 8 dereferenceable(8) %10, ptr noundef nonnull align 8 dereferenceable(8) %11)
  %34 = load double, ptr %33, align 8
  %35 = fdiv double %28, %34
  %36 = getelementptr inbounds %"class.ceres::internal::LevenbergMarquardtStrategy", ptr %12, i32 0, i32 2
  store double %35, ptr %36, align 8
  %37 = getelementptr inbounds %"class.ceres::internal::LevenbergMarquardtStrategy", ptr %12, i32 0, i32 3
  %38 = getelementptr inbounds %"class.ceres::internal::LevenbergMarquardtStrategy", ptr %12, i32 0, i32 2
  %39 = call noundef nonnull align 8 dereferenceable(8) ptr @_ZSt3minIdERKT_S2_S2_(ptr noundef nonnull align 8 dereferenceable(8) %37, ptr noundef nonnull align 8 dereferenceable(8) %38)
  %40 = load double, ptr %39, align 8
  %41 = getelementptr inbounds %"class.ceres::internal::LevenbergMarquardtStrategy", ptr %12, i32 0, i32 2
  store double %40, ptr %41, align 8
  %42 = getelementptr inbounds %"class.ceres::internal::LevenbergMarquardtStrategy", ptr %12, i32 0, i32 6
  store double 2.000000e+00, ptr %42, align 8
  %43 = getelementptr inbounds %"class.ceres::internal::LevenbergMarquardtStrategy", ptr %12, i32 0, i32 7
  store i8 0, ptr %43, align 8
  ret void

44:                                               ; preds = %25
  %45 = load ptr, ptr %8, align 8
  %46 = load i32, ptr %9, align 4
  %47 = insertvalue { ptr, i32 } poison, ptr %45, 0
  %48 = insertvalue { ptr, i32 } %47, i32 %46, 1
  resume { ptr, i32 } %48
}