; Function Attrs: mustprogress uwtable
define hidden void @_ZN5ceres8internal26LevenbergMarquardtStrategy12StepAcceptedEd(ptr nocapture noundef nonnull align 8 dereferenceable(112) %0, double noundef %1) unnamed_addr #0 align 2 personality ptr @__gxx_personality_v0 {
  %3 = alloca %"class.google::base::CheckOpMessageBuilder", align 8
  %4 = alloca %"struct.google::CheckOpString", align 8
  %5 = alloca %"class.google::LogMessageFatal", align 8
  %6 = fcmp ogt double %1, 0.000000e+00
  br i1 %6, label %_ZN6google12Check_GTImplIddEEPNSt7__cxx1112basic_stringIcSt11char_traitsIcESaIcEEERKT_RKT0_PKc.exit.thread, label %7

7:                                                ; preds = %2
  call void @llvm.lifetime.start.p0(i64 8, ptr nonnull %3)
  call void @_ZN6google4base21CheckOpMessageBuilderC1EPKc(ptr noundef nonnull align 8 dereferenceable(8) %3, ptr noundef nonnull @.str.15)
  %8 = load ptr, ptr %3, align 8
  %9 = invoke noundef nonnull align 8 dereferenceable(8) ptr @_ZNSolsEd(ptr noundef nonnull align 8 dereferenceable(8) %8, double noundef %1)
          to label %_ZN6google22MakeCheckOpValueStringIdEEvPSoRKT_.exit.i.i unwind label %14

_ZN6google22MakeCheckOpValueStringIdEEvPSoRKT_.exit.i.i: ; preds = %7
  %10 = invoke noundef ptr @_ZN6google4base21CheckOpMessageBuilder7ForVar2Ev(ptr noundef nonnull align 8 dereferenceable(8) %3)
          to label %11 unwind label %14

11:                                               ; preds = %_ZN6google22MakeCheckOpValueStringIdEEvPSoRKT_.exit.i.i
  %12 = invoke noundef nonnull align 8 dereferenceable(8) ptr @_ZNSolsEd(ptr noundef nonnull align 8 dereferenceable(8) %10, double noundef 0.000000e+00)
          to label %_ZN6google22MakeCheckOpValueStringIdEEvPSoRKT_.exit4.i.i unwind label %14

_ZN6google22MakeCheckOpValueStringIdEEvPSoRKT_.exit4.i.i: ; preds = %11
  %13 = invoke noundef ptr @_ZN6google4base21CheckOpMessageBuilder9NewStringB5cxx11Ev(ptr noundef nonnull align 8 dereferenceable(8) %3)
          to label %_ZN6google12Check_GTImplIddEEPNSt7__cxx1112basic_stringIcSt11char_traitsIcESaIcEEERKT_RKT0_PKc.exit unwind label %14

14:                                               ; preds = %_ZN6google22MakeCheckOpValueStringIdEEvPSoRKT_.exit4.i.i, %11, %_ZN6google22MakeCheckOpValueStringIdEEvPSoRKT_.exit.i.i, %7
  %15 = landingpad { ptr, i32 }
          cleanup
  call void @_ZN6google4base21CheckOpMessageBuilderD1Ev(ptr noundef nonnull align 8 dereferenceable(8) %3) #22
  resume { ptr, i32 } %15

_ZN6google12Check_GTImplIddEEPNSt7__cxx1112basic_stringIcSt11char_traitsIcESaIcEEERKT_RKT0_PKc.exit: ; preds = %_ZN6google22MakeCheckOpValueStringIdEEvPSoRKT_.exit4.i.i
  call void @_ZN6google4base21CheckOpMessageBuilderD1Ev(ptr noundef nonnull align 8 dereferenceable(8) %3) #22
  call void @llvm.lifetime.end.p0(i64 8, ptr nonnull %3)
  store ptr %13, ptr %4, align 8
  %.not = icmp eq ptr %13, null
  br i1 %.not, label %_ZN6google12Check_GTImplIddEEPNSt7__cxx1112basic_stringIcSt11char_traitsIcESaIcEEERKT_RKT0_PKc.exit.thread, label %16

16:                                               ; preds = %_ZN6google12Check_GTImplIddEEPNSt7__cxx1112basic_stringIcSt11char_traitsIcESaIcEEERKT_RKT0_PKc.exit
  call void @_ZN6google15LogMessageFatalC1EPKciRKNS_13CheckOpStringE(ptr noundef nonnull align 8 dereferenceable(96) %5, ptr noundef nonnull @.str, i32 noundef 158, ptr noundef nonnull align 8 dereferenceable(8) %4)
  %17 = invoke noundef nonnull align 8 dereferenceable(8) ptr @_ZN6google10LogMessage6streamEv(ptr noundef nonnull align 8 dereferenceable(96) %5)
          to label %18 unwind label %19

18:                                               ; preds = %16
  call void @_ZN6google15LogMessageFatalD1Ev(ptr noundef nonnull align 8 dereferenceable(96) %5) #21
  unreachable

19:                                               ; preds = %16
  %20 = landingpad { ptr, i32 }
          cleanup
  call void @_ZN6google15LogMessageFatalD1Ev(ptr noundef nonnull align 8 dereferenceable(96) %5) #21
  unreachable

_ZN6google12Check_GTImplIddEEPNSt7__cxx1112basic_stringIcSt11char_traitsIcESaIcEEERKT_RKT0_PKc.exit.thread: ; preds = %2, %_ZN6google12Check_GTImplIddEEPNSt7__cxx1112basic_stringIcSt11char_traitsIcESaIcEEERKT_RKT0_PKc.exit
  %21 = getelementptr inbounds i8, ptr %0, i64 16
  %22 = load double, ptr %21, align 8
  %23 = call double @llvm.fmuladd.f64(double %1, double 2.000000e+00, double -1.000000e+00)
  %24 = call noundef double @pow(double noundef %23, double noundef 3.000000e+00) #22
  %25 = fsub double 1.000000e+00, %24
  %26 = fcmp ogt double %25, 0x3FD5555555555555
  %.sroa.speculated = select i1 %26, double %25, double 0x3FD5555555555555
  %27 = fdiv double %22, %.sroa.speculated
  %28 = getelementptr inbounds i8, ptr %0, i64 24
  %29 = load double, ptr %28, align 8
  %30 = fcmp olt double %27, %29
  %31 = select i1 %30, double %27, double %29
  store double %31, ptr %21, align 8
  %32 = getelementptr inbounds i8, ptr %0, i64 48
  store double 2.000000e+00, ptr %32, align 8
  %33 = getelementptr inbounds i8, ptr %0, i64 56
  store i8 0, ptr %33, align 8
  ret void
}